target datalayout = "e-m:e-p270:32:32-p271:32:32-p272:64:64-i64:64-i128:128-f80:128-n8:16:32:64-S128"
target triple = "x86_64-unknown-linux-gnu"

; Function Attrs: nounwind uwtable
define dso_local void @_serverAssertWithInfo(ptr noundef %c, ptr noundef %o, ptr noundef %estr, ptr noundef %file, i32 noundef %line) #0 {
entry:
  %c.addr = alloca ptr, align 8
  %o.addr = alloca ptr, align 8
  %estr.addr = alloca ptr, align 8
  %file.addr = alloca ptr, align 8
  %line.addr = alloca i32, align 4
  store ptr %c, ptr %c.addr, align 8
  store ptr %o, ptr %o.addr, align 8
  store ptr %estr, ptr %estr.addr, align 8
  store ptr %file, ptr %file.addr, align 8
  store i32 %line, ptr %line.addr, align 4
  %0 = load ptr, ptr %c.addr, align 8
  %tobool = icmp ne ptr %0, null
  br i1 %tobool, label %if.then, label %if.end

if.then:                                          ; preds = %entry
  %1 = load ptr, ptr %c.addr, align 8
  call void @_serverAssertPrintClientInfo(ptr noundef %1)
  br label %if.end

if.end:                                           ; preds = %if.then, %entry
  %2 = load ptr, ptr %o.addr, align 8
  %tobool1 = icmp ne ptr %2, null
  br i1 %tobool1, label %if.then2, label %if.end3

if.then2:                                         ; preds = %if.end
  %3 = load ptr, ptr %o.addr, align 8
  call void @_serverAssertPrintObject(ptr noundef %3)
  br label %if.end3

if.end3:                                          ; preds = %if.then2, %if.end
  %4 = load ptr, ptr %estr.addr, align 8
  %5 = load ptr, ptr %file.addr, align 8
  %6 = load i32, ptr %line.addr, align 4
  call void @_serverAssert(ptr noundef %4, ptr noundef %5, i32 noundef %6)
  ret void
}