; Function Attrs: noreturn nounwind uwtable
define dso_local void @_serverAssertWithInfo(ptr noundef readonly %c, ptr noundef readonly %o, ptr noundef %estr, ptr noundef %file, i32 noundef %line) local_unnamed_addr #4 {
entry:
  %tobool.not = icmp eq ptr %c, null
  br i1 %tobool.not, label %if.end, label %if.then

if.then:                                          ; preds = %entry
  tail call void @_serverAssertPrintClientInfo(ptr noundef nonnull %c)
  br label %if.end

if.end:                                           ; preds = %if.then, %entry
  %tobool1.not = icmp eq ptr %o, null
  br i1 %tobool1.not, label %if.end3, label %if.then2

if.then2:                                         ; preds = %if.end
  tail call void @_serverAssertPrintObject(ptr noundef nonnull %o)
  br label %if.end3

if.end3:                                          ; preds = %if.then2, %if.end
  tail call void @_serverAssert(ptr noundef %estr, ptr noundef %file, i32 noundef %line)
  unreachable
}